; Function Attrs: mustprogress uwtable
define hidden noalias noundef ptr @_ZN7datalog17lazy_table_plugin18mk_filter_equal_fnERKNS_10table_baseERKmj(ptr noundef nonnull readnone align 8 captures(address) dereferenceable(40) %0, ptr noundef nonnull readonly align 8 captures(none) dereferenceable(36) %1, ptr noundef nonnull readonly align 8 captures(none) dereferenceable(8) %2, i32 noundef %3) unnamed_addr #3 align 2 {
  %5 = getelementptr inbounds nuw i8, ptr %1, i64 8
  %6 = load ptr, ptr %5, align 8, !tbaa !59
  %7 = icmp eq ptr %6, %0
  br i1 %7, label %8, label %13

8:                                                ; preds = %4
  %9 = tail call noalias noundef ptr @_ZN6memory8allocateEm(i64 noundef 24)
  store ptr getelementptr inbounds nuw inrange(-16, 40) (i8, ptr @_ZTVN7datalog17lazy_table_plugin15filter_equal_fnE, i64 16), ptr %9, align 8, !tbaa !27
  %10 = getelementptr inbounds nuw i8, ptr %9, i64 8
  %11 = load i64, ptr %2, align 8, !tbaa !74
  store i64 %11, ptr %10, align 8, !tbaa !75
  %12 = getelementptr inbounds nuw i8, ptr %9, i64 16
  store i32 %3, ptr %12, align 8, !tbaa !79
  br label %13

13:                                               ; preds = %4, %8
  %.0 = phi ptr [ %9, %8 ], [ null, %4 ]
  ret ptr %.0
}